target datalayout = "e-m:e-p270:32:32-p271:32:32-p272:64:64-i64:64-i128:128-f80:128-n8:16:32:64-S128"
target triple = "x86_64-pc-linux-gnu"

%struct.slurm_selected_step_t = type { ptr, i32, i32, %struct.slurm_step_id_msg }
%struct.slurm_step_id_msg = type { i64, i32, i32, i32 }

@.str.3 = private unnamed_addr constant [3 x i8] c"%u\00", align 1
@.str.5 = private unnamed_addr constant [4 x i8] c"_%u\00", align 1
@.str.6 = private unnamed_addr constant [4 x i8] c"+%u\00", align 1

; Function Attrs: nounwind uwtable
define dso_local ptr @slurm_get_selected_step_id(ptr noundef %0, i32 noundef %1, ptr noundef %2) #0 {
  %4 = alloca ptr, align 8
  %5 = alloca i32, align 4
  %6 = alloca ptr, align 8
  %7 = alloca i32, align 4
  store ptr %0, ptr %4, align 8
  store i32 %1, ptr %5, align 4
  store ptr %2, ptr %6, align 8
  call void @llvm.lifetime.start.p0(i64 4, ptr %7) #11
  store i32 0, ptr %7, align 4
  %8 = load ptr, ptr %4, align 8
  %9 = load i32, ptr %5, align 4
  %10 = sext i32 %9 to i64
  %11 = load ptr, ptr %6, align 8
  %12 = getelementptr inbounds nuw %struct.slurm_selected_step_t, ptr %11, i32 0, i32 3
  %13 = getelementptr inbounds nuw %struct.slurm_step_id_msg, ptr %12, i32 0, i32 1
  %14 = load i32, ptr %13, align 8
  %15 = call i32 (ptr, i64, ptr, ...) @snprintf(ptr noundef %8, i64 noundef %10, ptr noundef @.str.3, i32 noundef %14) #11
  store i32 %15, ptr %7, align 4
  %16 = load i32, ptr %7, align 4
  %17 = load i32, ptr %5, align 4
  %18 = icmp sgt i32 %16, %17
  br i1 %18, label %19, label %20

19:                                               ; preds = %3
  br label %98

20:                                               ; preds = %3
  %21 = load ptr, ptr %6, align 8
  %22 = getelementptr inbounds nuw %struct.slurm_selected_step_t, ptr %21, i32 0, i32 1
  %23 = load i32, ptr %22, align 8
  %24 = icmp ne i32 %23, -2
  br i1 %24, label %25, label %40

25:                                               ; preds = %20
  %26 = load ptr, ptr %4, align 8
  %27 = load i32, ptr %7, align 4
  %28 = sext i32 %27 to i64
  %29 = getelementptr inbounds i8, ptr %26, i64 %28
  %30 = load i32, ptr %5, align 4
  %31 = load i32, ptr %7, align 4
  %32 = sub nsw i32 %30, %31
  %33 = sext i32 %32 to i64
  %34 = load ptr, ptr %6, align 8
  %35 = getelementptr inbounds nuw %struct.slurm_selected_step_t, ptr %34, i32 0, i32 1
  %36 = load i32, ptr %35, align 8
  %37 = call i32 (ptr, i64, ptr, ...) @snprintf(ptr noundef %29, i64 noundef %33, ptr noundef @.str.5, i32 noundef %36) #11
  %38 = load i32, ptr %7, align 4
  %39 = add nsw i32 %38, %37
  store i32 %39, ptr %7, align 4
  br label %40

40:                                               ; preds = %25, %20
  %41 = load i32, ptr %7, align 4
  %42 = load i32, ptr %5, align 4
  %43 = icmp sgt i32 %41, %42
  br i1 %43, label %44, label %45

44:                                               ; preds = %40
  br label %98

45:                                               ; preds = %40
  %46 = load ptr, ptr %6, align 8
  %47 = getelementptr inbounds nuw %struct.slurm_selected_step_t, ptr %46, i32 0, i32 2
  %48 = load i32, ptr %47, align 4
  %49 = icmp ne i32 %48, -2
  br i1 %49, label %50, label %65

50:                                               ; preds = %45
  %51 = load ptr, ptr %4, align 8
  %52 = load i32, ptr %7, align 4
  %53 = sext i32 %52 to i64
  %54 = getelementptr inbounds i8, ptr %51, i64 %53
  %55 = load i32, ptr %5, align 4
  %56 = load i32, ptr %7, align 4
  %57 = sub nsw i32 %55, %56
  %58 = sext i32 %57 to i64
  %59 = load ptr, ptr %6, align 8
  %60 = getelementptr inbounds nuw %struct.slurm_selected_step_t, ptr %59, i32 0, i32 2
  %61 = load i32, ptr %60, align 4
  %62 = call i32 (ptr, i64, ptr, ...) @snprintf(ptr noundef %54, i64 noundef %58, ptr noundef @.str.6, i32 noundef %61) #11
  %63 = load i32, ptr %7, align 4
  %64 = add nsw i32 %63, %62
  store i32 %64, ptr %7, align 4
  br label %65

65:                                               ; preds = %50, %45
  %66 = load i32, ptr %7, align 4
  %67 = load i32, ptr %5, align 4
  %68 = icmp sgt i32 %66, %67
  br i1 %68, label %69, label %70

69:                                               ; preds = %65
  br label %98

70:                                               ; preds = %65
  %71 = load ptr, ptr %6, align 8
  %72 = getelementptr inbounds nuw %struct.slurm_selected_step_t, ptr %71, i32 0, i32 3
  %73 = getelementptr inbounds nuw %struct.slurm_step_id_msg, ptr %72, i32 0, i32 3
  %74 = load i32, ptr %73, align 8
  %75 = icmp ne i32 %74, -2
  br i1 %75, label %76, label %97

76:                                               ; preds = %70
  %77 = load ptr, ptr %4, align 8
  %78 = load i32, ptr %7, align 4
  %79 = add nsw i32 %78, 1
  store i32 %79, ptr %7, align 4
  %80 = sext i32 %78 to i64
  %81 = getelementptr inbounds i8, ptr %77, i64 %80
  store i8 46, ptr %81, align 1
  %82 = load i32, ptr %7, align 4
  %83 = load i32, ptr %5, align 4
  %84 = icmp sgt i32 %82, %83
  br i1 %84, label %85, label %86

85:                                               ; preds = %76
  br label %98

86:                                               ; preds = %76
  %87 = load ptr, ptr %6, align 8
  %88 = getelementptr inbounds nuw %struct.slurm_selected_step_t, ptr %87, i32 0, i32 3
  %89 = load ptr, ptr %4, align 8
  %90 = load i32, ptr %7, align 4
  %91 = sext i32 %90 to i64
  %92 = getelementptr inbounds i8, ptr %89, i64 %91
  %93 = load i32, ptr %5, align 4
  %94 = load i32, ptr %7, align 4
  %95 = sub nsw i32 %93, %94
  %96 = call ptr @log_build_step_id_str(ptr noundef %88, ptr noundef %92, i32 noundef %95, i16 noundef zeroext 6)
  br label %97

97:                                               ; preds = %86, %70
  br label %98

98:                                               ; preds = %97, %85, %69, %44, %19
  %99 = load ptr, ptr %4, align 8
  call void @llvm.lifetime.end.p0(i64 4, ptr %7) #11
  ret ptr %99
}