; Function Attrs: nounwind uwtable
define dso_local noundef ptr @slurm_get_selected_step_id(ptr noundef returned %0, i32 noundef %1, ptr noundef %2) local_unnamed_addr #1 {
  %4 = sext i32 %1 to i64
  %5 = getelementptr inbounds nuw i8, ptr %2, i64 16
  %6 = getelementptr inbounds nuw i8, ptr %2, i64 24
  %7 = load i32, ptr %6, align 8
  %8 = tail call i32 (ptr, i64, ptr, ...) @snprintf(ptr noundef %0, i64 noundef %4, ptr noundef nonnull @.str.3, i32 noundef %7) #24
  %9 = icmp sgt i32 %8, %1
  br i1 %9, label %46, label %10

10:                                               ; preds = %3
  %11 = getelementptr inbounds nuw i8, ptr %2, i64 8
  %12 = load i32, ptr %11, align 8
  %.not = icmp eq i32 %12, -2
  br i1 %.not, label %20, label %13

13:                                               ; preds = %10
  %14 = sext i32 %8 to i64
  %15 = getelementptr inbounds i8, ptr %0, i64 %14
  %16 = sub nsw i32 %1, %8
  %17 = sext i32 %16 to i64
  %18 = tail call i32 (ptr, i64, ptr, ...) @snprintf(ptr noundef %15, i64 noundef %17, ptr noundef nonnull @.str.5, i32 noundef %12) #24
  %19 = add nsw i32 %18, %8
  br label %20

20:                                               ; preds = %13, %10
  %.0 = phi i32 [ %19, %13 ], [ %8, %10 ]
  %21 = icmp sgt i32 %.0, %1
  br i1 %21, label %46, label %22

22:                                               ; preds = %20
  %23 = getelementptr inbounds nuw i8, ptr %2, i64 12
  %24 = load i32, ptr %23, align 4
  %.not38 = icmp eq i32 %24, -2
  br i1 %.not38, label %32, label %25

25:                                               ; preds = %22
  %26 = sext i32 %.0 to i64
  %27 = getelementptr inbounds i8, ptr %0, i64 %26
  %28 = sub nsw i32 %1, %.0
  %29 = sext i32 %28 to i64
  %30 = tail call i32 (ptr, i64, ptr, ...) @snprintf(ptr noundef %27, i64 noundef %29, ptr noundef nonnull @.str.6, i32 noundef %24) #24
  %31 = add nsw i32 %30, %.0
  br label %32

32:                                               ; preds = %25, %22
  %.1 = phi i32 [ %31, %25 ], [ %.0, %22 ]
  %33 = icmp sgt i32 %.1, %1
  br i1 %33, label %46, label %34

34:                                               ; preds = %32
  %35 = getelementptr inbounds nuw i8, ptr %2, i64 32
  %36 = load i32, ptr %35, align 8
  %.not39 = icmp eq i32 %36, -2
  br i1 %.not39, label %46, label %37

37:                                               ; preds = %34
  %38 = sext i32 %.1 to i64
  %39 = getelementptr inbounds i8, ptr %0, i64 %38
  store i8 46, ptr %39, align 1
  %.not40 = icmp slt i32 %.1, %1
  br i1 %.not40, label %40, label %46

40:                                               ; preds = %37
  %41 = add nsw i32 %.1, 1
  %42 = sext i32 %41 to i64
  %43 = getelementptr inbounds i8, ptr %0, i64 %42
  %44 = sub nsw i32 %1, %41
  %45 = tail call ptr @log_build_step_id_str(ptr noundef nonnull %5, ptr noundef %43, i32 noundef %44, i16 noundef zeroext 6) #24
  br label %46

46:                                               ; preds = %34, %40, %37, %32, %20, %3
  ret ptr %0
}